target datalayout = "e-m:e-p270:32:32-p271:32:32-p272:64:64-i64:64-i128:128-f80:128-n8:16:32:64-S128"
target triple = "x86_64-pc-linux-gnu"

%struct.H5G_iter_appcall_ud_t = type { i64, ptr, %struct.H5G_link_iterate_t, ptr }
%struct.H5G_link_iterate_t = type { i32, %union.anon }
%union.anon = type { ptr }
%struct.H5L_info2_t = type { i32, i8, i64, i32, %union.anon.3 }
%union.anon.3 = type { i64, [8 x i8] }
%struct.H5O_link_t = type { i32, i8, i64, i32, ptr, %union.anon.2 }
%union.anon.2 = type { %struct.H5O_link_ud_t }
%struct.H5O_link_ud_t = type { ptr, i64 }

@.str.3 = private unnamed_addr constant [100 x i8] c"generated/home/dtcxzyw/WorkSpace/Projects/compilers/llvm-opt-benchmark/bench/hdf5/hdf5/src/H5Gint.c\00", align 1
@H5E_SYM_g = external global i64, align 8
@H5E_CANTGET_g = external global i64, align 8
@__func__.H5G__iterate_cb = private unnamed_addr constant [16 x i8] c"H5G__iterate_cb\00", align 1
@.str.65 = private unnamed_addr constant [28 x i8] c"unable to get info for link\00", align 1

; Function Attrs: nounwind uwtable
define internal i32 @H5G__iterate_cb(ptr noundef %0, ptr noundef %1) #0 {
  %3 = alloca ptr, align 8
  %4 = alloca ptr, align 8
  %5 = alloca ptr, align 8
  %6 = alloca i32, align 4
  %7 = alloca i8, align 1
  %8 = alloca %struct.H5L_info2_t, align 8
  store ptr %0, ptr %3, align 8
  store ptr %1, ptr %4, align 8
  %9 = load ptr, ptr %4, align 8
  store ptr %9, ptr %5, align 8
  store i32 -1, ptr %6, align 4
  store i8 0, ptr %7, align 1
  %10 = load ptr, ptr %5, align 8
  %11 = getelementptr inbounds %struct.H5G_iter_appcall_ud_t, ptr %10, i32 0, i32 2
  %12 = getelementptr inbounds %struct.H5G_link_iterate_t, ptr %11, i32 0, i32 0
  %13 = load i32, ptr %12, align 8
  switch i32 %13, label %66 [
    i32 0, label %14
    i32 1, label %29
  ]

14:                                               ; preds = %2
  %15 = load ptr, ptr %5, align 8
  %16 = getelementptr inbounds %struct.H5G_iter_appcall_ud_t, ptr %15, i32 0, i32 2
  %17 = getelementptr inbounds %struct.H5G_link_iterate_t, ptr %16, i32 0, i32 1
  %18 = load ptr, ptr %17, align 8
  %19 = load ptr, ptr %5, align 8
  %20 = getelementptr inbounds %struct.H5G_iter_appcall_ud_t, ptr %19, i32 0, i32 0
  %21 = load i64, ptr %20, align 8
  %22 = load ptr, ptr %3, align 8
  %23 = getelementptr inbounds %struct.H5O_link_t, ptr %22, i32 0, i32 4
  %24 = load ptr, ptr %23, align 8
  %25 = load ptr, ptr %5, align 8
  %26 = getelementptr inbounds %struct.H5G_iter_appcall_ud_t, ptr %25, i32 0, i32 3
  %27 = load ptr, ptr %26, align 8
  %28 = call i32 %18(i64 noundef %21, ptr noundef %24, ptr noundef %27)
  store i32 %28, ptr %6, align 4
  br label %67

29:                                               ; preds = %2
  %30 = load ptr, ptr %5, align 8
  %31 = getelementptr inbounds %struct.H5G_iter_appcall_ud_t, ptr %30, i32 0, i32 1
  %32 = load ptr, ptr %31, align 8
  %33 = load ptr, ptr %3, align 8
  %34 = call i32 @H5G_link_to_info(ptr noundef %32, ptr noundef %33, ptr noundef %8)
  %35 = icmp slt i32 %34, 0
  br i1 %35, label %36, label %51

36:                                               ; preds = %29
  br label %37

37:                                               ; preds = %36
  br label %38

38:                                               ; preds = %37
  br label %39

39:                                               ; preds = %38
  %40 = load i64, ptr @H5E_SYM_g, align 8
  %41 = load i64, ptr @H5E_CANTGET_g, align 8
  %42 = call i32 (ptr, ptr, i32, i64, i64, ptr, ...) @H5E_printf_stack(ptr noundef @.str.3, ptr noundef @__func__.H5G__iterate_cb, i32 noundef 820, i64 noundef %40, i64 noundef %41, ptr noundef @.str.65)
  br label %43

43:                                               ; preds = %39
  store i8 1, ptr %7, align 1
  %44 = load i8, ptr %7, align 1
  %45 = trunc i8 %44 to i1
  %46 = zext i1 %45 to i8
  store i8 %46, ptr %7, align 1
  br label %47

47:                                               ; preds = %43
  br label %48

48:                                               ; preds = %47
  store i32 -1, ptr %6, align 4
  br label %68

49:                                               ; No predecessors!
  br label %50

50:                                               ; preds = %49
  br label %51

51:                                               ; preds = %50, %29
  %52 = load ptr, ptr %5, align 8
  %53 = getelementptr inbounds %struct.H5G_iter_appcall_ud_t, ptr %52, i32 0, i32 2
  %54 = getelementptr inbounds %struct.H5G_link_iterate_t, ptr %53, i32 0, i32 1
  %55 = load ptr, ptr %54, align 8
  %56 = load ptr, ptr %5, align 8
  %57 = getelementptr inbounds %struct.H5G_iter_appcall_ud_t, ptr %56, i32 0, i32 0
  %58 = load i64, ptr %57, align 8
  %59 = load ptr, ptr %3, align 8
  %60 = getelementptr inbounds %struct.H5O_link_t, ptr %59, i32 0, i32 4
  %61 = load ptr, ptr %60, align 8
  %62 = load ptr, ptr %5, align 8
  %63 = getelementptr inbounds %struct.H5G_iter_appcall_ud_t, ptr %62, i32 0, i32 3
  %64 = load ptr, ptr %63, align 8
  %65 = call i32 %55(i64 noundef %58, ptr noundef %61, ptr noundef %8, ptr noundef %64)
  store i32 %65, ptr %6, align 4
  br label %67

66:                                               ; preds = %2
  br label %67

67:                                               ; preds = %66, %51, %14
  br label %68

68:                                               ; preds = %67, %48
  %69 = load i32, ptr %6, align 4
  ret i32 %69
}