; Function Attrs: nounwind uwtable
define internal i32 @H5G__iterate_cb(ptr noundef %0, ptr nocapture noundef readonly %1) #0 {
  %3 = alloca %struct.H5L_info2_t, align 8
  %4 = getelementptr inbounds i8, ptr %1, i64 16
  %5 = load i32, ptr %4, align 8
  switch i32 %5, label %33 [
    i32 0, label %6
    i32 1, label %15
  ]

6:                                                ; preds = %2
  %7 = getelementptr inbounds i8, ptr %1, i64 24
  %8 = load ptr, ptr %7, align 8
  %9 = load i64, ptr %1, align 8
  %10 = getelementptr inbounds i8, ptr %0, i64 24
  %11 = load ptr, ptr %10, align 8
  %12 = getelementptr inbounds i8, ptr %1, i64 32
  %13 = load ptr, ptr %12, align 8
  %14 = tail call i32 %8(i64 noundef %9, ptr noundef %11, ptr noundef %13) #10
  br label %33

15:                                               ; preds = %2
  %16 = getelementptr inbounds i8, ptr %1, i64 8
  %17 = load ptr, ptr %16, align 8
  %18 = call i32 @H5G_link_to_info(ptr noundef %17, ptr noundef %0, ptr noundef nonnull %3) #10
  %19 = icmp slt i32 %18, 0
  br i1 %19, label %20, label %24

20:                                               ; preds = %15
  %21 = load i64, ptr @H5E_SYM_g, align 8
  %22 = load i64, ptr @H5E_CANTGET_g, align 8
  %23 = call i32 (ptr, ptr, i32, i64, i64, ptr, ...) @H5E_printf_stack(ptr noundef nonnull @.str.3, ptr noundef nonnull @__func__.H5G__iterate_cb, i32 noundef 820, i64 noundef %21, i64 noundef %22, ptr noundef nonnull @.str.65) #10
  br label %33

24:                                               ; preds = %15
  %25 = getelementptr inbounds i8, ptr %1, i64 24
  %26 = load ptr, ptr %25, align 8
  %27 = load i64, ptr %1, align 8
  %28 = getelementptr inbounds i8, ptr %0, i64 24
  %29 = load ptr, ptr %28, align 8
  %30 = getelementptr inbounds i8, ptr %1, i64 32
  %31 = load ptr, ptr %30, align 8
  %32 = call i32 %26(i64 noundef %27, ptr noundef %29, ptr noundef nonnull %3, ptr noundef %31) #10
  br label %33

33:                                               ; preds = %6, %24, %2, %20
  %.0 = phi i32 [ -1, %2 ], [ -1, %20 ], [ %32, %24 ], [ %14, %6 ]
  ret i32 %.0
}